; Function Attrs: mustprogress uwtable
define hidden void @_ZN2dt6solver8pop_coreEj(ptr noundef nonnull align 8 dereferenceable(472) %0, i32 noundef %1) unnamed_addr #3 align 2 personality ptr @__gxx_personality_v0 {
  tail call void @_ZN3euf13th_euf_solver8pop_coreEj(ptr noundef nonnull align 8 dereferenceable(108) %0, i32 noundef %1)
  %3 = getelementptr inbounds nuw i8, ptr %0, i64 312
  %4 = load ptr, ptr %3, align 8, !tbaa !416
  %5 = getelementptr inbounds nuw i8, ptr %0, i64 88
  %6 = load ptr, ptr %5, align 8, !tbaa !432
  %7 = icmp eq ptr %6, null
  br i1 %7, label %_ZNK3euf13th_euf_solver12get_num_varsEv.exit, label %8

8:                                                ; preds = %2
  %9 = getelementptr inbounds i8, ptr %6, i64 -4
  %10 = load i32, ptr %9, align 4, !tbaa !387
  %11 = zext i32 %10 to i64
  br label %_ZNK3euf13th_euf_solver12get_num_varsEv.exit

_ZNK3euf13th_euf_solver12get_num_varsEv.exit:     ; preds = %2, %8
  %.0.i.i = phi i64 [ %11, %8 ], [ 0, %2 ]
  %12 = getelementptr inbounds nuw ptr, ptr %4, i64 %.0.i.i
  %13 = icmp eq ptr %4, null
  br i1 %13, label %_ZN6vectorIPN2dt6solver8var_dataELb0EjE3endEv.exit, label %14

14:                                               ; preds = %_ZNK3euf13th_euf_solver12get_num_varsEv.exit
  %15 = getelementptr inbounds i8, ptr %4, i64 -4
  %16 = load i32, ptr %15, align 4, !tbaa !387
  %17 = zext i32 %16 to i64
  br label %_ZN6vectorIPN2dt6solver8var_dataELb0EjE3endEv.exit

_ZN6vectorIPN2dt6solver8var_dataELb0EjE3endEv.exit: ; preds = %_ZNK3euf13th_euf_solver12get_num_varsEv.exit, %14
  %.0.i.i1 = phi i64 [ %17, %14 ], [ 0, %_ZNK3euf13th_euf_solver12get_num_varsEv.exit ]
  %18 = getelementptr inbounds nuw ptr, ptr %4, i64 %.0.i.i1
  %.not4.i = icmp samesign eq i64 %.0.i.i, %.0.i.i1
  br i1 %.not4.i, label %_ZSt8for_eachIPPN2dt6solver8var_dataE11delete_procIS2_EET0_T_S8_S7_.exit, label %.lr.ph.i

.lr.ph.i:                                         ; preds = %_ZN6vectorIPN2dt6solver8var_dataELb0EjE3endEv.exit, %_ZN11delete_procIN2dt6solver8var_dataEEclEPS2_.exit.i
  %.05.i = phi ptr [ %27, %_ZN11delete_procIN2dt6solver8var_dataEEclEPS2_.exit.i ], [ %12, %_ZN6vectorIPN2dt6solver8var_dataELb0EjE3endEv.exit ]
  %19 = load ptr, ptr %.05.i, align 8, !tbaa !442
  %.not.i.i = icmp eq ptr %19, null
  br i1 %.not.i.i, label %_ZN11delete_procIN2dt6solver8var_dataEEclEPS2_.exit.i, label %20

20:                                               ; preds = %.lr.ph.i
  %21 = load ptr, ptr %19, align 8, !tbaa !432
  %.not.i.i.i.i.i.i = icmp eq ptr %21, null
  br i1 %.not.i.i.i.i.i.i, label %_Z7deallocIN2dt6solver8var_dataEEvPT_.exit.i.i, label %22

22:                                               ; preds = %20
  %23 = getelementptr inbounds i8, ptr %21, i64 -8
  invoke void @_ZN6memory10deallocateEPv(ptr noundef nonnull %23)
          to label %_Z7deallocIN2dt6solver8var_dataEEvPT_.exit.i.i unwind label %24

24:                                               ; preds = %22
  %25 = landingpad { ptr, i32 }
          catch ptr null
  %26 = extractvalue { ptr, i32 } %25, 0
  tail call void @__clang_call_terminate(ptr %26) #24
  unreachable

_Z7deallocIN2dt6solver8var_dataEEvPT_.exit.i.i:   ; preds = %22, %20
  tail call void @_ZN6memory10deallocateEPv(ptr noundef nonnull %19)
  br label %_ZN11delete_procIN2dt6solver8var_dataEEclEPS2_.exit.i

_ZN11delete_procIN2dt6solver8var_dataEEclEPS2_.exit.i: ; preds = %_Z7deallocIN2dt6solver8var_dataEEvPT_.exit.i.i, %.lr.ph.i
  %27 = getelementptr inbounds nuw i8, ptr %.05.i, i64 8
  %.not.i = icmp eq ptr %27, %18
  br i1 %.not.i, label %_ZSt8for_eachIPPN2dt6solver8var_dataE11delete_procIS2_EET0_T_S8_S7_.exit.loopexit, label %.lr.ph.i, !llvm.loop !444

_ZSt8for_eachIPPN2dt6solver8var_dataE11delete_procIS2_EET0_T_S8_S7_.exit.loopexit: ; preds = %_ZN11delete_procIN2dt6solver8var_dataEEclEPS2_.exit.i
  %.pre = load ptr, ptr %5, align 8, !tbaa !432
  br label %_ZSt8for_eachIPPN2dt6solver8var_dataE11delete_procIS2_EET0_T_S8_S7_.exit

_ZSt8for_eachIPPN2dt6solver8var_dataE11delete_procIS2_EET0_T_S8_S7_.exit: ; preds = %_ZSt8for_eachIPPN2dt6solver8var_dataE11delete_procIS2_EET0_T_S8_S7_.exit.loopexit, %_ZN6vectorIPN2dt6solver8var_dataELb0EjE3endEv.exit
  %28 = phi ptr [ %.pre, %_ZSt8for_eachIPPN2dt6solver8var_dataE11delete_procIS2_EET0_T_S8_S7_.exit.loopexit ], [ %6, %_ZN6vectorIPN2dt6solver8var_dataELb0EjE3endEv.exit ]
  %29 = icmp eq ptr %28, null
  br i1 %29, label %_ZNK3euf13th_euf_solver12get_num_varsEv.exit3, label %30

30:                                               ; preds = %_ZSt8for_eachIPPN2dt6solver8var_dataE11delete_procIS2_EET0_T_S8_S7_.exit
  %31 = getelementptr inbounds i8, ptr %28, i64 -4
  %32 = load i32, ptr %31, align 4, !tbaa !387
  br label %_ZNK3euf13th_euf_solver12get_num_varsEv.exit3

_ZNK3euf13th_euf_solver12get_num_varsEv.exit3:    ; preds = %_ZSt8for_eachIPPN2dt6solver8var_dataE11delete_procIS2_EET0_T_S8_S7_.exit, %30
  %.0.i.i2 = phi i32 [ %32, %30 ], [ 0, %_ZSt8for_eachIPPN2dt6solver8var_dataE11delete_procIS2_EET0_T_S8_S7_.exit ]
  %33 = load ptr, ptr %3, align 8, !tbaa !416
  %.not.i4 = icmp eq ptr %33, null
  br i1 %.not.i4, label %_ZN6vectorIPN2dt6solver8var_dataELb0EjE6shrinkEj.exit, label %34

34:                                               ; preds = %_ZNK3euf13th_euf_solver12get_num_varsEv.exit3
  %35 = getelementptr inbounds i8, ptr %33, i64 -4
  store i32 %.0.i.i2, ptr %35, align 4, !tbaa !387
  br label %_ZN6vectorIPN2dt6solver8var_dataELb0EjE6shrinkEj.exit

_ZN6vectorIPN2dt6solver8var_dataELb0EjE6shrinkEj.exit: ; preds = %_ZNK3euf13th_euf_solver12get_num_varsEv.exit3, %34
  ret void
}